; Function Attrs: nounwind uwtable
define internal range(i32 0, 2) i32 @_is_job_preempt_exempt_internal(ptr noundef %0, ptr noundef %1) #0 {
  %3 = tail call zeroext i1 @job_borrow_from_resv_check(ptr noundef %0, ptr noundef %1) #8
  br i1 %3, label %7, label %4

4:                                                ; preds = %2
  %5 = load ptr, ptr getelementptr inbounds nuw (i8, ptr @ops, i64 8), align 8
  %6 = tail call zeroext i1 %5(ptr noundef %0, ptr noundef %1) #8
  br i1 %6, label %7, label %23

7:                                                ; preds = %4, %2
  %8 = load i32, ptr @min_exempt_priority, align 4
  %9 = getelementptr inbounds nuw i8, ptr %0, i64 720
  %10 = load i32, ptr %9, align 8
  %11 = icmp ult i32 %8, %10
  br i1 %11, label %23, label %12

12:                                               ; preds = %7
  %13 = getelementptr inbounds nuw i8, ptr %1, i64 216
  %14 = load ptr, ptr %13, align 8
  %.not = icmp eq ptr %14, null
  br i1 %.not, label %21, label %15

15:                                               ; preds = %12
  %16 = getelementptr inbounds nuw i8, ptr %14, i64 184
  %17 = load i32, ptr %16, align 8
  %18 = getelementptr inbounds nuw i8, ptr %0, i64 392
  %19 = load i32, ptr %18, align 8
  %20 = icmp eq i32 %17, %19
  br i1 %20, label %23, label %21

21:                                               ; preds = %15, %12
  %22 = tail call zeroext i1 @acct_policy_is_job_preempt_exempt(ptr noundef nonnull %0) #8
  %. = zext i1 %22 to i32
  br label %23

23:                                               ; preds = %21, %15, %7, %4
  %.0 = phi i32 [ 1, %4 ], [ 1, %7 ], [ 1, %15 ], [ %., %21 ]
  ret i32 %.0
}